target datalayout = "e-m:e-p270:32:32-p271:32:32-p272:64:64-i64:64-i128:128-f80:128-n8:16:32:64-S128"
target triple = "x86_64-pc-linux-gnu"

%struct.anon = type { i32, [0 x i8] }
%struct.anon.0 = type { i32, i32, [0 x i8] }

@.str = private unnamed_addr constant [32 x i8] c"compressed pglz data is corrupt\00", align 1
@.str.1 = private unnamed_addr constant [20 x i8] c"toast_compression.c\00", align 1
@__func__.pglz_decompress_datum = private unnamed_addr constant [22 x i8] c"pglz_decompress_datum\00", align 1

; Function Attrs: nounwind uwtable
define dso_local ptr @pglz_decompress_datum(ptr noundef %0) #0 {
  %2 = alloca ptr, align 8
  %3 = alloca ptr, align 8
  %4 = alloca i32, align 4
  store ptr %0, ptr %2, align 8
  call void @llvm.lifetime.start.p0(i64 8, ptr %3) #6
  call void @llvm.lifetime.start.p0(i64 4, ptr %4) #6
  %5 = load ptr, ptr %2, align 8
  %6 = getelementptr inbounds nuw %struct.anon.0, ptr %5, i32 0, i32 1
  %7 = load i32, ptr %6, align 4
  %8 = and i32 %7, 1073741823
  %9 = add i32 %8, 4
  %10 = zext i32 %9 to i64
  %11 = call ptr @palloc(i64 noundef %10)
  store ptr %11, ptr %3, align 8
  %12 = load ptr, ptr %2, align 8
  %13 = getelementptr inbounds nuw i8, ptr %12, i64 8
  %14 = load ptr, ptr %2, align 8
  %15 = getelementptr inbounds nuw %struct.anon, ptr %14, i32 0, i32 0
  %16 = load i32, ptr %15, align 4
  %17 = lshr i32 %16, 2
  %18 = and i32 %17, 1073741823
  %19 = zext i32 %18 to i64
  %20 = sub i64 %19, 8
  %21 = trunc i64 %20 to i32
  %22 = load ptr, ptr %3, align 8
  %23 = getelementptr inbounds nuw %struct.anon, ptr %22, i32 0, i32 1
  %24 = getelementptr inbounds [0 x i8], ptr %23, i64 0, i64 0
  %25 = load ptr, ptr %2, align 8
  %26 = getelementptr inbounds nuw %struct.anon.0, ptr %25, i32 0, i32 1
  %27 = load i32, ptr %26, align 4
  %28 = and i32 %27, 1073741823
  %29 = call i32 @pglz_decompress(ptr noundef %13, i32 noundef %21, ptr noundef %24, i32 noundef %28, i1 noundef zeroext true)
  store i32 %29, ptr %4, align 4
  %30 = load i32, ptr %4, align 4
  %31 = icmp slt i32 %30, 0
  br i1 %31, label %32, label %44

32:                                               ; preds = %1
  br label %33

33:                                               ; preds = %32
  br i1 true, label %34, label %36

34:                                               ; preds = %33
  %35 = call zeroext i1 @errstart_cold(i32 noundef 21, ptr noundef null) #7
  br i1 %35, label %38, label %41

36:                                               ; preds = %33
  %37 = call zeroext i1 @errstart(i32 noundef 21, ptr noundef null)
  br i1 %37, label %38, label %41

38:                                               ; preds = %36, %34
  %39 = call i32 @errcode(i32 noundef 16779816)
  %40 = call i32 (ptr, ...) @errmsg_internal(ptr noundef @.str)
  call void @errfinish(ptr noundef @.str.1, i32 noundef 98, ptr noundef @__func__.pglz_decompress_datum)
  br label %41

41:                                               ; preds = %38, %36, %34
  unreachable

42:                                               ; No predecessors!
  br label %43

43:                                               ; preds = %42
  br label %44

44:                                               ; preds = %43, %1
  %45 = load i32, ptr %4, align 4
  %46 = add i32 %45, 4
  %47 = shl i32 %46, 2
  %48 = load ptr, ptr %3, align 8
  %49 = getelementptr inbounds nuw %struct.anon, ptr %48, i32 0, i32 0
  store i32 %47, ptr %49, align 4
  %50 = load ptr, ptr %3, align 8
  call void @llvm.lifetime.end.p0(i64 4, ptr %4) #6
  call void @llvm.lifetime.end.p0(i64 8, ptr %3) #6
  ret ptr %50
}