; Function Attrs: nounwind uwtable
define dso_local ptr @pglz_decompress_datum(ptr noundef %0) local_unnamed_addr #0 {
  %2 = getelementptr inbounds nuw i8, ptr %0, i64 4
  %3 = load i32, ptr %2, align 4
  %4 = and i32 %3, 1073741823
  %5 = add nuw nsw i32 %4, 4
  %6 = zext nneg i32 %5 to i64
  %7 = tail call ptr @palloc(i64 noundef %6) #7
  %8 = getelementptr inbounds nuw i8, ptr %0, i64 8
  %9 = load i32, ptr %0, align 4
  %10 = lshr i32 %9, 2
  %11 = add nsw i32 %10, -8
  %12 = getelementptr inbounds nuw i8, ptr %7, i64 4
  %13 = load i32, ptr %2, align 4
  %14 = and i32 %13, 1073741823
  %15 = tail call i32 @pglz_decompress(ptr noundef nonnull %8, i32 noundef %11, ptr noundef nonnull %12, i32 noundef %14, i1 noundef zeroext true) #7
  %16 = icmp slt i32 %15, 0
  br i1 %16, label %17, label %21

17:                                               ; preds = %1
  %18 = tail call zeroext i1 @errstart_cold(i32 noundef 21, ptr noundef null) #8
  tail call void @llvm.assume(i1 %18)
  %19 = tail call i32 @errcode(i32 noundef 16779816) #7
  %20 = tail call i32 (ptr, ...) @errmsg_internal(ptr noundef nonnull @.str) #7
  tail call void @errfinish(ptr noundef nonnull @.str.1, i32 noundef 98, ptr noundef nonnull @__func__.pglz_decompress_datum) #7
  unreachable

21:                                               ; preds = %1
  %22 = shl i32 %15, 2
  %23 = add i32 %22, 16
  store i32 %23, ptr %7, align 4
  ret ptr %7
}